; ModuleID = '10/273.c'
source_filename = "10/273.c"
target datalayout = "e-m:e-p270:32:32-p271:32:32-p272:64:64-i64:64-f80:128-n8:16:32:64-S128"
target triple = "x86_64-pc-linux-gnu"

@.str = private unnamed_addr constant [3 x i8] c"%d\00", align 1
@.str.1 = private unnamed_addr constant [4 x i8] c"%d\0A\00", align 1

; Function Attrs: noinline nounwind uwtable
define dso_local i32 @main() #0 {
  %1 = alloca i32, align 4
  %2 = alloca i32, align 4
  %3 = alloca [25 x i32], align 16
  %4 = alloca i32, align 4
  %5 = alloca [25 x i32], align 16
  %6 = alloca i32, align 4
  %7 = alloca i32, align 4
  store i32 0, i32* %1, align 4
  %8 = call i32 (i8*, ...) @__isoc99_scanf(i8* getelementptr inbounds ([3 x i8], [3 x i8]* @.str, i64 0, i64 0), i32* %2)
  store i32 0, i32* %4, align 4
  br label %9

9:                                                ; preds = %18, %0
  %10 = load i32, i32* %4, align 4
  %11 = load i32, i32* %2, align 4
  %12 = icmp slt i32 %10, %11
  br i1 %12, label %13, label %21

13:                                               ; preds = %9
  %14 = load i32, i32* %4, align 4
  %15 = sext i32 %14 to i64
  %16 = getelementptr inbounds [25 x i32], [25 x i32]* %3, i64 0, i64 %15
  %17 = call i32 (i8*, ...) @__isoc99_scanf(i8* getelementptr inbounds ([3 x i8], [3 x i8]* @.str, i64 0, i64 0), i32* %16)
  br label %18

18:                                               ; preds = %13
  %19 = load i32, i32* %4, align 4
  %20 = add nsw i32 %19, 1
  store i32 %20, i32* %4, align 4
  br label %9

21:                                               ; preds = %9
  %22 = load i32, i32* %2, align 4
  %23 = sub nsw i32 %22, 1
  %24 = sext i32 %23 to i64
  %25 = getelementptr inbounds [25 x i32], [25 x i32]* %5, i64 0, i64 %24
  store i32 1, i32* %25, align 4
  %26 = load i32, i32* %2, align 4
  %27 = sub nsw i32 %26, 2
  %28 = sext i32 %27 to i64
  %29 = getelementptr inbounds [25 x i32], [25 x i32]* %3, i64 0, i64 %28
  %30 = load i32, i32* %29, align 4
  %31 = load i32, i32* %2, align 4
  %32 = sub nsw i32 %31, 1
  %33 = sext i32 %32 to i64
  %34 = getelementptr inbounds [25 x i32], [25 x i32]* %3, i64 0, i64 %33
  %35 = load i32, i32* %34, align 4
  %36 = icmp sge i32 %30, %35
  br i1 %36, label %37, label %42

37:                                               ; preds = %21
  %38 = load i32, i32* %2, align 4
  %39 = sub nsw i32 %38, 2
  %40 = sext i32 %39 to i64
  %41 = getelementptr inbounds [25 x i32], [25 x i32]* %5, i64 0, i64 %40
  store i32 2, i32* %41, align 4
  br label %47

42:                                               ; preds = %21
  %43 = load i32, i32* %2, align 4
  %44 = sub nsw i32 %43, 2
  %45 = sext i32 %44 to i64
  %46 = getelementptr inbounds [25 x i32], [25 x i32]* %5, i64 0, i64 %45
  store i32 1, i32* %46, align 4
  br label %47

47:                                               ; preds = %42, %37
  %48 = load i32, i32* %2, align 4
  %49 = sub nsw i32 %48, 3
  store i32 %49, i32* %6, align 4
  br label %50

50:                                               ; preds = %93, %47
  %51 = load i32, i32* %6, align 4
  %52 = icmp sge i32 %51, 0
  br i1 %52, label %53, label %96

53:                                               ; preds = %50
  store i32 0, i32* %7, align 4
  %54 = load i32, i32* %6, align 4
  %55 = add nsw i32 %54, 1
  store i32 %55, i32* %4, align 4
  br label %56

56:                                               ; preds = %84, %53
  %57 = load i32, i32* %4, align 4
  %58 = load i32, i32* %2, align 4
  %59 = sub nsw i32 %58, 1
  %60 = icmp sle i32 %57, %59
  br i1 %60, label %61, label %87

61:                                               ; preds = %56
  %62 = load i32, i32* %6, align 4
  %63 = sext i32 %62 to i64
  %64 = getelementptr inbounds [25 x i32], [25 x i32]* %3, i64 0, i64 %63
  %65 = load i32, i32* %64, align 4
  %66 = load i32, i32* %4, align 4
  %67 = sext i32 %66 to i64
  %68 = getelementptr inbounds [25 x i32], [25 x i32]* %3, i64 0, i64 %67
  %69 = load i32, i32* %68, align 4
  %70 = icmp sge i32 %65, %69
  br i1 %70, label %71, label %83

71:                                               ; preds = %61
  %72 = load i32, i32* %4, align 4
  %73 = sext i32 %72 to i64
  %74 = getelementptr inbounds [25 x i32], [25 x i32]* %5, i64 0, i64 %73
  %75 = load i32, i32* %74, align 4
  %76 = load i32, i32* %7, align 4
  %77 = icmp sge i32 %75, %76
  br i1 %77, label %78, label %83

78:                                               ; preds = %71
  %79 = load i32, i32* %4, align 4
  %80 = sext i32 %79 to i64
  %81 = getelementptr inbounds [25 x i32], [25 x i32]* %5, i64 0, i64 %80
  %82 = load i32, i32* %81, align 4
  store i32 %82, i32* %7, align 4
  br label %83

83:                                               ; preds = %78, %71, %61
  br label %84

84:                                               ; preds = %83
  %85 = load i32, i32* %4, align 4
  %86 = add nsw i32 %85, 1
  store i32 %86, i32* %4, align 4
  br label %56

87:                                               ; preds = %56
  %88 = load i32, i32* %7, align 4
  %89 = add nsw i32 %88, 1
  %90 = load i32, i32* %6, align 4
  %91 = sext i32 %90 to i64
  %92 = getelementptr inbounds [25 x i32], [25 x i32]* %5, i64 0, i64 %91
  store i32 %89, i32* %92, align 4
  br label %93

93:                                               ; preds = %87
  %94 = load i32, i32* %6, align 4
  %95 = add nsw i32 %94, -1
  store i32 %95, i32* %6, align 4
  br label %50

96:                                               ; preds = %50
  store i32 0, i32* %7, align 4
  store i32 0, i32* %6, align 4
  br label %97

97:                                               ; preds = %115, %96
  %98 = load i32, i32* %6, align 4
  %99 = load i32, i32* %2, align 4
  %100 = sub nsw i32 %99, 1
  %101 = icmp sle i32 %98, %100
  br i1 %101, label %102, label %118

102:                                              ; preds = %97
  %103 = load i32, i32* %6, align 4
  %104 = sext i32 %103 to i64
  %105 = getelementptr inbounds [25 x i32], [25 x i32]* %5, i64 0, i64 %104
  %106 = load i32, i32* %105, align 4
  %107 = load i32, i32* %7, align 4
  %108 = icmp sgt i32 %106, %107
  br i1 %108, label %109, label %114

109:                                              ; preds = %102
  %110 = load i32, i32* %6, align 4
  %111 = sext i32 %110 to i64
  %112 = getelementptr inbounds [25 x i32], [25 x i32]* %5, i64 0, i64 %111
  %113 = load i32, i32* %112, align 4
  store i32 %113, i32* %7, align 4
  br label %114

114:                                              ; preds = %109, %102
  br label %115

115:                                              ; preds = %114
  %116 = load i32, i32* %6, align 4
  %117 = add nsw i32 %116, 1
  store i32 %117, i32* %6, align 4
  br label %97

118:                                              ; preds = %97
  %119 = load i32, i32* %7, align 4
  %120 = call i32 (i8*, ...) @printf(i8* getelementptr inbounds ([4 x i8], [4 x i8]* @.str.1, i64 0, i64 0), i32 %119)
  ret i32 0
}

declare dso_local i32 @__isoc99_scanf(i8*, ...) #1

declare dso_local i32 @printf(i8*, ...) #1


!llvm.module.flags = !{!0}
!llvm.ident = !{!1}

!0 = !{i32 1, !"wchar_size", i32 4}
!1 = !{!"clang version 10.0.0-4ubuntu1 "}
